; ModuleID = '12/705.cpp'
source_filename = "12/705.cpp"
target datalayout = "e-m:e-p270:32:32-p271:32:32-p272:64:64-i64:64-f80:128-n8:16:32:64-S128"
target triple = "x86_64-pc-linux-gnu"

%"class.std::ios_base::Init" = type { i8 }
%"class.std::basic_istream" = type { i32 (...)**, i64, %"class.std::basic_ios" }
%"class.std::basic_ios" = type { %"class.std::ios_base", %"class.std::basic_ostream"*, i8, i8, %"class.std::basic_streambuf"*, %"class.std::ctype"*, %"class.std::num_put"*, %"class.std::num_get"* }
%"class.std::ios_base" = type { i32 (...)**, i64, i64, i32, i32, i32, %"struct.std::ios_base::_Callback_list"*, %"struct.std::ios_base::_Words", [8 x %"struct.std::ios_base::_Words"], i32, %"struct.std::ios_base::_Words"*, %"class.std::locale" }
%"struct.std::ios_base::_Callback_list" = type { %"struct.std::ios_base::_Callback_list"*, void (i32, %"class.std::ios_base"*, i32)*, i32, i32 }
%"struct.std::ios_base::_Words" = type { i8*, i64 }
%"class.std::locale" = type { %"class.std::locale::_Impl"* }
%"class.std::locale::_Impl" = type { i32, %"class.std::locale::facet"**, i64, %"class.std::locale::facet"**, i8** }
%"class.std::locale::facet" = type <{ i32 (...)**, i32, [4 x i8] }>
%"class.std::basic_ostream" = type { i32 (...)**, %"class.std::basic_ios" }
%"class.std::basic_streambuf" = type { i32 (...)**, i8*, i8*, i8*, i8*, i8*, i8*, %"class.std::locale" }
%"class.std::ctype" = type <{ %"class.std::locale::facet.base", [4 x i8], %struct.__locale_struct*, i8, [7 x i8], i32*, i32*, i16*, i8, [256 x i8], [256 x i8], i8, [6 x i8] }>
%"class.std::locale::facet.base" = type <{ i32 (...)**, i32 }>
%struct.__locale_struct = type { [13 x %struct.__locale_data*], i16*, i32*, i32*, [13 x i8*] }
%struct.__locale_data = type opaque
%"class.std::num_put" = type { %"class.std::locale::facet.base", [4 x i8] }
%"class.std::num_get" = type { %"class.std::locale::facet.base", [4 x i8] }

@_ZStL8__ioinit = internal global %"class.std::ios_base::Init" zeroinitializer, align 1
@__dso_handle = external hidden global i8
@_ZSt3cin = external dso_local global %"class.std::basic_istream", align 8
@_ZSt4cout = external dso_local global %"class.std::basic_ostream", align 8
@llvm.global_ctors = appending global [1 x { i32, void ()*, i8* }] [{ i32, void ()*, i8* } { i32 65535, void ()* @_GLOBAL__sub_I_705.cpp, i8* null }]

; Function Attrs: noinline uwtable
define internal void @__cxx_global_var_init() #0 section ".text.startup" {
  call void @_ZNSt8ios_base4InitC1Ev(%"class.std::ios_base::Init"* @_ZStL8__ioinit)
  %1 = call i32 @__cxa_atexit(void (i8*)* bitcast (void (%"class.std::ios_base::Init"*)* @_ZNSt8ios_base4InitD1Ev to void (i8*)*), i8* getelementptr inbounds (%"class.std::ios_base::Init", %"class.std::ios_base::Init"* @_ZStL8__ioinit, i32 0, i32 0), i8* @__dso_handle) #3
  ret void
}

declare dso_local void @_ZNSt8ios_base4InitC1Ev(%"class.std::ios_base::Init"*) unnamed_addr #1

; Function Attrs: nounwind
declare dso_local void @_ZNSt8ios_base4InitD1Ev(%"class.std::ios_base::Init"*) unnamed_addr #2

; Function Attrs: nounwind
declare dso_local i32 @__cxa_atexit(void (i8*)*, i8*, i8*) #3

; Function Attrs: noinline norecurse uwtable
define dso_local i32 @main() #4 {
  %1 = alloca i32, align 4
  %2 = alloca [16 x i32], align 16
  %3 = alloca i32, align 4
  %4 = alloca i32, align 4
  %5 = alloca i32, align 4
  %6 = alloca i32, align 4
  %7 = alloca i32, align 4
  %8 = alloca i32, align 4
  store i32 0, i32* %1, align 4
  %9 = bitcast [16 x i32]* %2 to i8*
  call void @llvm.memset.p0i8.i64(i8* align 16 %9, i8 0, i64 64, i1 false)
  store i32 1, i32* %4, align 4
  br label %10

10:                                               ; preds = %75, %0
  %11 = load i32, i32* %3, align 4
  %12 = icmp ne i32 %11, -1
  br i1 %12, label %13, label %76

13:                                               ; preds = %10
  br label %14

14:                                               ; preds = %28, %13
  %15 = call dereferenceable(280) %"class.std::basic_istream"* @_ZNSirsERi(%"class.std::basic_istream"* @_ZSt3cin, i32* dereferenceable(4) %3)
  %16 = load i32, i32* %3, align 4
  %17 = load i32, i32* %4, align 4
  %18 = sext i32 %17 to i64
  %19 = getelementptr inbounds [16 x i32], [16 x i32]* %2, i64 0, i64 %18
  store i32 %16, i32* %19, align 4
  %20 = load i32, i32* %4, align 4
  %21 = add nsw i32 %20, 1
  store i32 %21, i32* %4, align 4
  br label %22

22:                                               ; preds = %14
  %23 = load i32, i32* %3, align 4
  %24 = icmp ne i32 %23, 0
  br i1 %24, label %25, label %28

25:                                               ; preds = %22
  %26 = load i32, i32* %3, align 4
  %27 = icmp ne i32 %26, -1
  br label %28

28:                                               ; preds = %25, %22
  %29 = phi i1 [ false, %22 ], [ %27, %25 ]
  br i1 %29, label %14, label %30

30:                                               ; preds = %28
  store i32 1, i32* %5, align 4
  store i32 0, i32* %7, align 4
  store i32 1, i32* %5, align 4
  br label %31

31:                                               ; preds = %63, %30
  %32 = load i32, i32* %5, align 4
  %33 = load i32, i32* %4, align 4
  %34 = sub nsw i32 %33, 1
  %35 = icmp sle i32 %32, %34
  br i1 %35, label %36, label %66

36:                                               ; preds = %31
  %37 = load i32, i32* %5, align 4
  %38 = sext i32 %37 to i64
  %39 = getelementptr inbounds [16 x i32], [16 x i32]* %2, i64 0, i64 %38
  %40 = load i32, i32* %39, align 4
  store i32 %40, i32* %6, align 4
  store i32 1, i32* %8, align 4
  br label %41

41:                                               ; preds = %59, %36
  %42 = load i32, i32* %8, align 4
  %43 = load i32, i32* %4, align 4
  %44 = sub nsw i32 %43, 1
  %45 = icmp sle i32 %42, %44
  br i1 %45, label %46, label %62

46:                                               ; preds = %41
  %47 = load i32, i32* %6, align 4
  %48 = load i32, i32* %8, align 4
  %49 = sext i32 %48 to i64
  %50 = getelementptr inbounds [16 x i32], [16 x i32]* %2, i64 0, i64 %49
  %51 = load i32, i32* %50, align 4
  %52 = mul nsw i32 2, %51
  %53 = icmp eq i32 %47, %52
  br i1 %53, label %54, label %57

54:                                               ; preds = %46
  %55 = load i32, i32* %7, align 4
  %56 = add nsw i32 %55, 1
  store i32 %56, i32* %7, align 4
  br label %58

57:                                               ; preds = %46
  br label %59

58:                                               ; preds = %54
  br label %59

59:                                               ; preds = %58, %57
  %60 = load i32, i32* %8, align 4
  %61 = add nsw i32 %60, 1
  store i32 %61, i32* %8, align 4
  br label %41

62:                                               ; preds = %41
  br label %63

63:                                               ; preds = %62
  %64 = load i32, i32* %5, align 4
  %65 = add nsw i32 %64, 1
  store i32 %65, i32* %5, align 4
  br label %31

66:                                               ; preds = %31
  %67 = load i32, i32* %3, align 4
  %68 = icmp ne i32 %67, -1
  br i1 %68, label %69, label %74

69:                                               ; preds = %66
  %70 = load i32, i32* %7, align 4
  %71 = sub nsw i32 %70, 1
  %72 = call dereferenceable(272) %"class.std::basic_ostream"* @_ZNSolsEi(%"class.std::basic_ostream"* @_ZSt4cout, i32 %71)
  %73 = call dereferenceable(272) %"class.std::basic_ostream"* @_ZNSolsEPFRSoS_E(%"class.std::basic_ostream"* %72, %"class.std::basic_ostream"* (%"class.std::basic_ostream"*)* @_ZSt4endlIcSt11char_traitsIcEERSt13basic_ostreamIT_T0_ES6_)
  br label %75

74:                                               ; preds = %66
  br label %76

75:                                               ; preds = %69
  store i32 1, i32* %4, align 4
  store i32 0, i32* %7, align 4
  br label %10

76:                                               ; preds = %74, %10
  ret i32 0
}

; Function Attrs: argmemonly nounwind willreturn
declare void @llvm.memset.p0i8.i64(i8* nocapture writeonly, i8, i64, i1 immarg) #5

declare dso_local dereferenceable(280) %"class.std::basic_istream"* @_ZNSirsERi(%"class.std::basic_istream"*, i32* dereferenceable(4)) #1

declare dso_local dereferenceable(272) %"class.std::basic_ostream"* @_ZNSolsEi(%"class.std::basic_ostream"*, i32) #1

declare dso_local dereferenceable(272) %"class.std::basic_ostream"* @_ZNSolsEPFRSoS_E(%"class.std::basic_ostream"*, %"class.std::basic_ostream"* (%"class.std::basic_ostream"*)*) #1

declare dso_local dereferenceable(272) %"class.std::basic_ostream"* @_ZSt4endlIcSt11char_traitsIcEERSt13basic_ostreamIT_T0_ES6_(%"class.std::basic_ostream"* dereferenceable(272)) #1

; Function Attrs: noinline uwtable
define internal void @_GLOBAL__sub_I_705.cpp() #0 section ".text.startup" {
  call void @__cxx_global_var_init()
  ret void
}


!llvm.module.flags = !{!0}
!llvm.ident = !{!1}

!0 = !{i32 1, !"wchar_size", i32 4}
!1 = !{!"clang version 10.0.0-4ubuntu1 "}
